target datalayout = "e-m:e-p270:32:32-p271:32:32-p272:64:64-i64:64-i128:128-f80:128-n8:16:32:64-S128"
target triple = "x86_64-pc-linux-gnu"

%"class.clang::QualType" = type { %"class.llvm::PointerIntPair.4" }
%"class.llvm::PointerIntPair.4" = type { %"struct.llvm::detail::PunnedPointer.5" }
%"struct.llvm::detail::PunnedPointer.5" = type { [8 x i8] }
%"class.std::__cxx11::basic_string" = type { %"struct.std::__cxx11::basic_string<char>::_Alloc_hider", i64, %union.anon.144 }
%"struct.std::__cxx11::basic_string<char>::_Alloc_hider" = type { ptr }
%union.anon.144 = type { i64, [8 x i8] }
%"class.llvm::StringRef" = type { ptr, i64 }
%"class.llvm::SmallVectorBase" = type { ptr, i32, i32 }
%"class.llvm::SmallVectorImpl.242" = type { %"class.llvm::SmallVectorTemplateBase.243" }
%"class.llvm::SmallVectorTemplateBase.243" = type { %"class.llvm::SmallVectorTemplateCommon.244" }
%"class.llvm::SmallVectorTemplateCommon.244" = type { %"class.llvm::SmallVectorBase" }
%"class.(anonymous namespace)::StreamChecker" = type { %"class.clang::ento::Checker", %"class.clang::ento::BugType", %"class.clang::ento::BugType", %"class.clang::ento::BugType", %"class.clang::ento::BugType", %"class.clang::ento::BugType", %"class.clang::ento::BugType", %"class.clang::ento::BugType", i8, i8, [6 x i8], %"class.clang::ento::CallDescription", %"class.clang::ento::CallDescriptionMap", %"class.clang::ento::CallDescriptionMap", %"class.std::optional.891", i32, i32, i32, [4 x i8], %"class.clang::QualType", ptr, ptr, ptr }
%"class.clang::ento::Checker" = type { %"class.clang::ento::CheckerBase" }
%"class.clang::ento::CheckerBase" = type { %"class.clang::ProgramPointTag", %"class.clang::ento::CheckerNameRef" }
%"class.clang::ProgramPointTag" = type { ptr, ptr }
%"class.clang::ento::CheckerNameRef" = type { %"class.llvm::StringRef" }
%"class.clang::ento::BugType" = type <{ ptr, %"class.clang::ento::CheckerNameRef", %"class.std::__cxx11::basic_string", %"class.std::__cxx11::basic_string", ptr, i8, [7 x i8] }>
%"class.clang::ento::CallDescription" = type <{ %"class.std::optional.870", %"class.std::vector.722", %"class.std::optional.878", %"class.std::optional.878", i32, [4 x i8] }>
%"class.std::optional.870" = type { %"struct.std::_Optional_base.871" }
%"struct.std::_Optional_base.871" = type { %"struct.std::_Optional_payload.873" }
%"struct.std::_Optional_payload.873" = type { %"struct.std::_Optional_payload_base.base.875", [7 x i8] }
%"struct.std::_Optional_payload_base.base.875" = type <{ %"union.std::_Optional_payload_base<const clang::IdentifierInfo *>::_Storage", i8 }>
%"union.std::_Optional_payload_base<const clang::IdentifierInfo *>::_Storage" = type { ptr }
%"class.std::vector.722" = type { %"struct.std::_Vector_base.723" }
%"struct.std::_Vector_base.723" = type { %"struct.std::_Vector_base<std::__cxx11::basic_string<char>, std::allocator<std::__cxx11::basic_string<char>>>::_Vector_impl" }
%"struct.std::_Vector_base<std::__cxx11::basic_string<char>, std::allocator<std::__cxx11::basic_string<char>>>::_Vector_impl" = type { %"struct.std::_Vector_base<std::__cxx11::basic_string<char>, std::allocator<std::__cxx11::basic_string<char>>>::_Vector_impl_data" }
%"struct.std::_Vector_base<std::__cxx11::basic_string<char>, std::allocator<std::__cxx11::basic_string<char>>>::_Vector_impl_data" = type { ptr, ptr, ptr }
%"class.std::optional.878" = type { %"struct.std::_Optional_base.879" }
%"struct.std::_Optional_base.879" = type { %"struct.std::_Optional_payload.881" }
%"struct.std::_Optional_payload.881" = type { %"struct.std::_Optional_payload_base.base.883", [3 x i8] }
%"struct.std::_Optional_payload_base.base.883" = type <{ %"union.std::_Optional_payload_base<unsigned int>::_Storage", i8 }>
%"union.std::_Optional_payload_base<unsigned int>::_Storage" = type { i32 }
%"class.clang::ento::CallDescriptionMap" = type { %"class.std::vector.886" }
%"class.std::vector.886" = type { %"struct.std::_Vector_base.887" }
%"struct.std::_Vector_base.887" = type { %"struct.std::_Vector_base<std::pair<clang::ento::CallDescription, (anonymous namespace)::FnDescription>, std::allocator<std::pair<clang::ento::CallDescription, (anonymous namespace)::FnDescription>>>::_Vector_impl" }
%"struct.std::_Vector_base<std::pair<clang::ento::CallDescription, (anonymous namespace)::FnDescription>, std::allocator<std::pair<clang::ento::CallDescription, (anonymous namespace)::FnDescription>>>::_Vector_impl" = type { %"struct.std::_Vector_base<std::pair<clang::ento::CallDescription, (anonymous namespace)::FnDescription>, std::allocator<std::pair<clang::ento::CallDescription, (anonymous namespace)::FnDescription>>>::_Vector_impl_data" }
%"struct.std::_Vector_base<std::pair<clang::ento::CallDescription, (anonymous namespace)::FnDescription>, std::allocator<std::pair<clang::ento::CallDescription, (anonymous namespace)::FnDescription>>>::_Vector_impl_data" = type { ptr, ptr, ptr }
%"class.std::optional.891" = type { %"struct.std::_Optional_base.892" }
%"struct.std::_Optional_base.892" = type { %"struct.std::_Optional_payload.894" }
%"struct.std::_Optional_payload.894" = type { %"struct.std::_Optional_payload_base.base.896", [3 x i8] }
%"struct.std::_Optional_payload_base.base.896" = type <{ %"union.std::_Optional_payload_base<int>::_Storage", i8 }>
%"union.std::_Optional_payload_base<int>::_Storage" = type { i32 }
%"class.std::allocator.141" = type { i8 }
%class.anon.1312 = type { ptr, ptr, %"class.std::__cxx11::basic_string" }
%"class.clang::ento::BugReport" = type { ptr, i32, ptr, %"class.std::__cxx11::basic_string", %"class.std::__cxx11::basic_string", %"class.llvm::SmallVector.1323", %"class.llvm::SmallVector.1328", %"class.llvm::SmallVector.1333" }
%"class.llvm::SmallVector.1323" = type { %"class.llvm::SmallVectorImpl.1324", %"struct.llvm::SmallVectorStorage.1327" }
%"class.llvm::SmallVectorImpl.1324" = type { %"class.llvm::SmallVectorTemplateBase.1325" }
%"class.llvm::SmallVectorTemplateBase.1325" = type { %"class.llvm::SmallVectorTemplateCommon.1326" }
%"class.llvm::SmallVectorTemplateCommon.1326" = type { %"class.llvm::SmallVectorBase" }
%"struct.llvm::SmallVectorStorage.1327" = type { [32 x i8] }
%"class.llvm::SmallVector.1328" = type { %"class.llvm::SmallVectorImpl.1329", %"struct.llvm::SmallVectorStorage.1332" }
%"class.llvm::SmallVectorImpl.1329" = type { %"class.llvm::SmallVectorTemplateBase.1330" }
%"class.llvm::SmallVectorTemplateBase.1330" = type { %"class.llvm::SmallVectorTemplateCommon.1331" }
%"class.llvm::SmallVectorTemplateCommon.1331" = type { %"class.llvm::SmallVectorBase" }
%"struct.llvm::SmallVectorStorage.1332" = type { [64 x i8] }
%"class.llvm::SmallVector.1333" = type { %"class.llvm::SmallVectorImpl.242", %"struct.llvm::SmallVectorStorage.1334" }
%"struct.llvm::SmallVectorStorage.1334" = type { [256 x i8] }
%struct._Guard = type { ptr }

@.str.5 = private unnamed_addr constant [1 x i8] zeroinitializer, align 1
@.str.54 = private unnamed_addr constant [50 x i8] c"basic_string: construction from null is not valid\00", align 1

; Function Attrs: mustprogress nounwind uwtable
define linkonce_odr noundef i64 @_ZSt10__distanceIPKcENSt15iterator_traitsIT_E15difference_typeES3_S3_St26random_access_iterator_tag(ptr noundef %0, ptr noundef %1) #0 comdat {
  %3 = alloca ptr, align 8
  %4 = alloca ptr, align 8
  store ptr %0, ptr %3, align 8
  store ptr %1, ptr %4, align 8
  %5 = load ptr, ptr %4, align 8
  %6 = load ptr, ptr %3, align 8
  %7 = ptrtoint ptr %5 to i64
  %8 = ptrtoint ptr %6 to i64
  %9 = sub i64 %7, %8
  ret i64 %9
}

; Function Attrs: mustprogress nounwind uwtable
define linkonce_odr void @_ZSt19__iterator_categoryIPKcENSt15iterator_traitsIT_E17iterator_categoryERKS3_(ptr noundef nonnull align 8 dereferenceable(8) %0) #0 comdat {
  %2 = alloca ptr, align 8
  store ptr %0, ptr %2, align 8
  ret void
}

; Function Attrs: mustprogress nounwind uwtable
define linkonce_odr hidden void @_ZZNSt7__cxx1112basic_stringIcSt11char_traitsIcESaIcEE12_M_constructIPKcEEvT_S8_St20forward_iterator_tagEN6_GuardD2Ev(ptr noundef nonnull align 8 dereferenceable(8) %0) unnamed_addr #0 comdat align 2 {
  %2 = alloca ptr, align 8
  store ptr %0, ptr %2, align 8
  %3 = load ptr, ptr %2, align 8
  %4 = getelementptr inbounds nuw %struct._Guard, ptr %3, i32 0, i32 0
  %5 = load ptr, ptr %4, align 8
  %6 = icmp ne ptr %5, null
  br i1 %6, label %7, label %10

7:                                                ; preds = %1
  %8 = getelementptr inbounds nuw %struct._Guard, ptr %3, i32 0, i32 0
  %9 = load ptr, ptr %8, align 8
  call void @_ZNSt7__cxx1112basic_stringIcSt11char_traitsIcESaIcEE10_M_disposeEv(ptr noundef nonnull align 8 dereferenceable(32) %9)
  br label %10

10:                                               ; preds = %7, %1
  ret void
}

; Function Attrs: mustprogress nounwind uwtable
define linkonce_odr hidden void @_ZZNSt7__cxx1112basic_stringIcSt11char_traitsIcESaIcEE12_M_constructIPKcEEvT_S8_St20forward_iterator_tagEN6_GuardC2EPS4_(ptr noundef nonnull align 8 dereferenceable(8) %0, ptr noundef %1) unnamed_addr #0 comdat align 2 {
  %3 = alloca ptr, align 8
  %4 = alloca ptr, align 8
  store ptr %0, ptr %3, align 8
  store ptr %1, ptr %4, align 8
  %5 = load ptr, ptr %3, align 8
  %6 = getelementptr inbounds nuw %struct._Guard, ptr %5, i32 0, i32 0
  %7 = load ptr, ptr %4, align 8
  store ptr %7, ptr %6, align 8
  ret void
}

; Function Attrs: mustprogress nounwind uwtable
define linkonce_odr noundef i64 @_ZSt8distanceIPKcENSt15iterator_traitsIT_E15difference_typeES3_S3_(ptr noundef %0, ptr noundef %1) #0 comdat {
  %3 = alloca ptr, align 8
  %4 = alloca ptr, align 8
  store ptr %0, ptr %3, align 8
  store ptr %1, ptr %4, align 8
  %5 = load ptr, ptr %3, align 8
  %6 = load ptr, ptr %4, align 8
  call void @_ZSt19__iterator_categoryIPKcENSt15iterator_traitsIT_E17iterator_categoryERKS3_(ptr noundef nonnull align 8 dereferenceable(8) %3)
  %7 = call noundef i64 @_ZSt10__distanceIPKcENSt15iterator_traitsIT_E15difference_typeES3_S3_St26random_access_iterator_tag(ptr noundef %5, ptr noundef %6)
  ret i64 %7
}

; Function Attrs: mustprogress nounwind uwtable
define linkonce_odr void @_ZNSt7__cxx1112basic_stringIcSt11char_traitsIcESaIcEE12_M_constructIPKcEEvT_S8_St20forward_iterator_tag(ptr noundef nonnull align 8 dereferenceable(32) %0, ptr noundef %1, ptr noundef %2) #0 comdat align 2 {
  %4 = alloca ptr, align 8
  %5 = alloca ptr, align 8
  %6 = alloca ptr, align 8
  %7 = alloca ptr, align 8
  %8 = alloca i64, align 8
  %9 = alloca %struct._Guard, align 8
  store ptr %0, ptr %5, align 8
  store ptr %1, ptr %6, align 8
  store ptr %2, ptr %7, align 8
  %10 = load ptr, ptr %5, align 8
  %11 = load ptr, ptr %6, align 8
  %12 = load ptr, ptr %7, align 8
  %13 = call noundef i64 @_ZSt8distanceIPKcENSt15iterator_traitsIT_E15difference_typeES3_S3_(ptr noundef %11, ptr noundef %12)
  store i64 %13, ptr %8, align 8
  %14 = load i64, ptr %8, align 8
  %15 = icmp ugt i64 %14, 15
  br i1 %15, label %16, label %19

16:                                               ; preds = %3
  %17 = call noundef ptr @_ZNSt7__cxx1112basic_stringIcSt11char_traitsIcESaIcEE9_M_createERmm(ptr noundef nonnull align 8 dereferenceable(32) %10, ptr noundef nonnull align 8 dereferenceable(8) %8, i64 noundef 0)
  call void @_ZNSt7__cxx1112basic_stringIcSt11char_traitsIcESaIcEE7_M_dataEPc(ptr noundef nonnull align 8 dereferenceable(32) %10, ptr noundef %17)
  %18 = load i64, ptr %8, align 8
  call void @_ZNSt7__cxx1112basic_stringIcSt11char_traitsIcESaIcEE11_M_capacityEm(ptr noundef nonnull align 8 dereferenceable(32) %10, i64 noundef %18)
  br label %22

19:                                               ; preds = %3
  store ptr %10, ptr %4, align 8
  %20 = load ptr, ptr %4, align 8
  %21 = call noundef ptr @_ZNSt7__cxx1112basic_stringIcSt11char_traitsIcESaIcEE13_M_local_dataEv(ptr noundef nonnull align 8 dereferenceable(32) %20) #18
  br label %22

22:                                               ; preds = %19, %16
  call void @_ZZNSt7__cxx1112basic_stringIcSt11char_traitsIcESaIcEE12_M_constructIPKcEEvT_S8_St20forward_iterator_tagEN6_GuardC2EPS4_(ptr noundef nonnull align 8 dereferenceable(8) %9, ptr noundef %10)
  %23 = call noundef ptr @_ZNKSt7__cxx1112basic_stringIcSt11char_traitsIcESaIcEE7_M_dataEv(ptr noundef nonnull align 8 dereferenceable(32) %10)
  %24 = load ptr, ptr %6, align 8
  %25 = load ptr, ptr %7, align 8
  call void @_ZNSt7__cxx1112basic_stringIcSt11char_traitsIcESaIcEE13_S_copy_charsEPcPKcS7_(ptr noundef %23, ptr noundef %24, ptr noundef %25) #18
  %26 = getelementptr inbounds nuw %struct._Guard, ptr %9, i32 0, i32 0
  store ptr null, ptr %26, align 8
  %27 = load i64, ptr %8, align 8
  call void @_ZNSt7__cxx1112basic_stringIcSt11char_traitsIcESaIcEE13_M_set_lengthEm(ptr noundef nonnull align 8 dereferenceable(32) %10, i64 noundef %27)
  call void @_ZZNSt7__cxx1112basic_stringIcSt11char_traitsIcESaIcEE12_M_constructIPKcEEvT_S8_St20forward_iterator_tagEN6_GuardD2Ev(ptr noundef nonnull align 8 dereferenceable(8) %9) #18
  ret void
}

; Function Attrs: mustprogress nounwind uwtable
define linkonce_odr hidden noundef i64 @_ZNSt11char_traitsIcE6lengthEPKc(ptr noundef %0) #0 comdat align 2 {
  %2 = alloca ptr, align 8
  store ptr %0, ptr %2, align 8
  %3 = load ptr, ptr %2, align 8
  %4 = call i64 @strlen(ptr noundef %3) #18
  ret i64 %4
}

; Function Attrs: mustprogress nounwind uwtable
define linkonce_odr hidden void @_ZNSt7__cxx1112basic_stringIcSt11char_traitsIcESaIcEEC2IS3_EEPKcRKS3_(ptr noundef nonnull align 8 dereferenceable(32) %0, ptr noundef %1, ptr noundef nonnull align 1 dereferenceable(1) %2) unnamed_addr #0 comdat align 2 {
  %4 = alloca ptr, align 8
  %5 = alloca ptr, align 8
  %6 = alloca ptr, align 8
  %7 = alloca ptr, align 8
  store ptr %0, ptr %4, align 8
  store ptr %1, ptr %5, align 8
  store ptr %2, ptr %6, align 8
  %8 = load ptr, ptr %4, align 8
  %9 = getelementptr inbounds nuw %"class.std::__cxx11::basic_string", ptr %8, i32 0, i32 0
  %10 = call noundef ptr @_ZNSt7__cxx1112basic_stringIcSt11char_traitsIcESaIcEE13_M_local_dataEv(ptr noundef nonnull align 8 dereferenceable(32) %8)
  %11 = load ptr, ptr %6, align 8
  call void @_ZNSt7__cxx1112basic_stringIcSt11char_traitsIcESaIcEE12_Alloc_hiderC1EPcRKS3_(ptr noundef nonnull align 8 dereferenceable(8) %9, ptr noundef %10, ptr noundef nonnull align 1 dereferenceable(1) %11)
  %12 = load ptr, ptr %5, align 8
  %13 = icmp eq ptr %12, null
  br i1 %13, label %14, label %15

14:                                               ; preds = %3
  call void @_ZSt19__throw_logic_errorPKc(ptr noundef @.str.54) #21
  unreachable

15:                                               ; preds = %3
  %16 = load ptr, ptr %5, align 8
  %17 = load ptr, ptr %5, align 8
  %18 = call noundef i64 @_ZNSt11char_traitsIcE6lengthEPKc(ptr noundef %17)
  %19 = getelementptr inbounds i8, ptr %16, i64 %18
  store ptr %19, ptr %7, align 8
  %20 = load ptr, ptr %5, align 8
  %21 = load ptr, ptr %7, align 8
  call void @_ZNSt7__cxx1112basic_stringIcSt11char_traitsIcESaIcEE12_M_constructIPKcEEvT_S8_St20forward_iterator_tag(ptr noundef nonnull align 8 dereferenceable(32) %8, ptr noundef %20, ptr noundef %21)
  ret void
}

; Function Attrs: mustprogress nounwind uwtable
define linkonce_odr hidden noundef nonnull align 8 dereferenceable(97) ptr @_ZNK5clang4ento9BugReport10getBugTypeEv(ptr noundef nonnull align 8 dereferenceable(488) %0) #0 comdat align 2 {
  %2 = alloca ptr, align 8
  store ptr %0, ptr %2, align 8
  %3 = load ptr, ptr %2, align 8
  %4 = getelementptr inbounds nuw %"class.clang::ento::BugReport", ptr %3, i32 0, i32 2
  %5 = load ptr, ptr %4, align 8
  ret ptr %5
}

; Function Attrs: mustprogress nounwind uwtable
define internal void @_ZZNK12_GLOBAL__N_113StreamChecker20constructLeakNoteTagERN5clang4ento14CheckerContextEPKNS2_7SymExprERKNSt7__cxx1112basic_stringIcSt11char_traitsIcESaIcEEEENKUlRNS2_22PathSensitiveBugReportEE_clB5cxx11ESH_(ptr dead_on_unwind noalias writable sret(%"class.std::__cxx11::basic_string") align 8 %0, ptr noundef nonnull align 8 dereferenceable(48) %1, ptr noundef nonnull align 8 dereferenceable(1016) %2) #0 align 2 {
  %4 = alloca ptr, align 8
  %5 = alloca ptr, align 8
  %6 = alloca ptr, align 8
  %7 = alloca %"class.std::allocator.141", align 1
  store ptr %0, ptr %4, align 8
  store ptr %1, ptr %5, align 8
  store ptr %2, ptr %6, align 8
  %8 = load ptr, ptr %5, align 8
  %9 = getelementptr inbounds nuw %class.anon.1312, ptr %8, i32 0, i32 0
  %10 = load ptr, ptr %9, align 8
  %11 = load ptr, ptr %6, align 8
  %12 = getelementptr inbounds nuw %class.anon.1312, ptr %8, i32 0, i32 1
  %13 = load ptr, ptr %12, align 8
  %14 = call noundef zeroext i1 @_ZNK5clang4ento22PathSensitiveBugReport13isInterestingEPKNS0_7SymExprE(ptr noundef nonnull align 8 dereferenceable(1016) %11, ptr noundef %13)
  br i1 %14, label %15, label %22

15:                                               ; preds = %3
  %16 = load ptr, ptr %6, align 8
  %17 = call noundef nonnull align 8 dereferenceable(97) ptr @_ZNK5clang4ento9BugReport10getBugTypeEv(ptr noundef nonnull align 8 dereferenceable(488) %16)
  %18 = getelementptr inbounds nuw %"class.(anonymous namespace)::StreamChecker", ptr %10, i32 0, i32 7
  %19 = icmp eq ptr %17, %18
  br i1 %19, label %20, label %22

20:                                               ; preds = %15
  %21 = getelementptr inbounds nuw %class.anon.1312, ptr %8, i32 0, i32 2
  call void @_ZNSt7__cxx1112basic_stringIcSt11char_traitsIcESaIcEEC1ERKS4_(ptr noundef nonnull align 8 dereferenceable(32) %0, ptr noundef nonnull align 8 dereferenceable(32) %21)
  br label %23

22:                                               ; preds = %15, %3
  call void @_ZNSaIcEC1Ev(ptr noundef nonnull align 1 dereferenceable(1) %7) #18
  call void @_ZNSt7__cxx1112basic_stringIcSt11char_traitsIcESaIcEEC2IS3_EEPKcRKS3_(ptr noundef nonnull align 8 dereferenceable(32) %0, ptr noundef @.str.5, ptr noundef nonnull align 1 dereferenceable(1) %7)
  call void @_ZNSaIcED1Ev(ptr noundef nonnull align 1 dereferenceable(1) %7) #18
  br label %23

23:                                               ; preds = %22, %20
  ret void
}

; Function Attrs: mustprogress nounwind uwtable
define linkonce_odr hidden noundef ptr @_ZNKSt9_Any_data9_M_accessEv(ptr noundef nonnull align 8 dereferenceable(16) %0) #0 comdat align 2 {
  %2 = alloca ptr, align 8
  store ptr %0, ptr %2, align 8
  %3 = load ptr, ptr %2, align 8
  %4 = getelementptr inbounds [16 x i8], ptr %3, i64 0, i64 0
  ret ptr %4
}

; Function Attrs: mustprogress nounwind uwtable
define internal void @_ZSt13__invoke_implINSt7__cxx1112basic_stringIcSt11char_traitsIcESaIcEEERZNK12_GLOBAL__N_113StreamChecker20constructLeakNoteTagERN5clang4ento14CheckerContextEPKNS9_7SymExprERKS5_EUlRNS9_22PathSensitiveBugReportEE_JSI_EET_St14__invoke_otherOT0_DpOT1_(ptr dead_on_unwind noalias writable sret(%"class.std::__cxx11::basic_string") align 8 %0, ptr noundef nonnull align 8 dereferenceable(48) %1, ptr noundef nonnull align 8 dereferenceable(1016) %2) #0 {
  %4 = alloca ptr, align 8
  %5 = alloca ptr, align 8
  %6 = alloca ptr, align 8
  store ptr %0, ptr %4, align 8
  store ptr %1, ptr %5, align 8
  store ptr %2, ptr %6, align 8
  %7 = load ptr, ptr %5, align 8
  %8 = load ptr, ptr %6, align 8
  call void @_ZZNK12_GLOBAL__N_113StreamChecker20constructLeakNoteTagERN5clang4ento14CheckerContextEPKNS2_7SymExprERKNSt7__cxx1112basic_stringIcSt11char_traitsIcESaIcEEEENKUlRNS2_22PathSensitiveBugReportEE_clB5cxx11ESH_(ptr dead_on_unwind writable sret(%"class.std::__cxx11::basic_string") align 8 %0, ptr noundef nonnull align 8 dereferenceable(48) %7, ptr noundef nonnull align 8 dereferenceable(1016) %8)
  ret void
}

; Function Attrs: mustprogress nounwind uwtable
define internal noundef nonnull align 8 dereferenceable(8) ptr @_ZNKSt9_Any_data9_M_accessIPZNK12_GLOBAL__N_113StreamChecker20constructLeakNoteTagERN5clang4ento14CheckerContextEPKNS4_7SymExprERKNSt7__cxx1112basic_stringIcSt11char_traitsIcESaIcEEEEUlRNS4_22PathSensitiveBugReportEE_EERKT_v(ptr noundef nonnull align 8 dereferenceable(16) %0) #0 align 2 {
  %2 = alloca ptr, align 8
  store ptr %0, ptr %2, align 8
  %3 = load ptr, ptr %2, align 8
  %4 = call noundef ptr @_ZNKSt9_Any_data9_M_accessEv(ptr noundef nonnull align 8 dereferenceable(16) %3) #18
  ret ptr %4
}

; Function Attrs: mustprogress nounwind uwtable
define internal void @_ZSt10__invoke_rINSt7__cxx1112basic_stringIcSt11char_traitsIcESaIcEEERZNK12_GLOBAL__N_113StreamChecker20constructLeakNoteTagERN5clang4ento14CheckerContextEPKNS9_7SymExprERKS5_EUlRNS9_22PathSensitiveBugReportEE_JSI_EENSt9enable_ifIX16is_invocable_r_vIT_T0_DpT1_EESM_E4typeEOSN_DpOSO_(ptr dead_on_unwind noalias writable sret(%"class.std::__cxx11::basic_string") align 8 %0, ptr noundef nonnull align 8 dereferenceable(48) %1, ptr noundef nonnull align 8 dereferenceable(1016) %2) #0 {
  %4 = alloca ptr, align 8
  %5 = alloca ptr, align 8
  %6 = alloca ptr, align 8
  store ptr %0, ptr %4, align 8
  store ptr %1, ptr %5, align 8
  store ptr %2, ptr %6, align 8
  %7 = load ptr, ptr %5, align 8
  %8 = load ptr, ptr %6, align 8
  call void @_ZSt13__invoke_implINSt7__cxx1112basic_stringIcSt11char_traitsIcESaIcEEERZNK12_GLOBAL__N_113StreamChecker20constructLeakNoteTagERN5clang4ento14CheckerContextEPKNS9_7SymExprERKS5_EUlRNS9_22PathSensitiveBugReportEE_JSI_EET_St14__invoke_otherOT0_DpOT1_(ptr dead_on_unwind writable sret(%"class.std::__cxx11::basic_string") align 8 %0, ptr noundef nonnull align 8 dereferenceable(48) %7, ptr noundef nonnull align 8 dereferenceable(1016) %8)
  ret void
}

; Function Attrs: mustprogress nounwind uwtable
define internal noundef ptr @_ZNSt14_Function_base13_Base_managerIZNK12_GLOBAL__N_113StreamChecker20constructLeakNoteTagERN5clang4ento14CheckerContextEPKNS4_7SymExprERKNSt7__cxx1112basic_stringIcSt11char_traitsIcESaIcEEEEUlRNS4_22PathSensitiveBugReportEE_E14_M_get_pointerERKSt9_Any_data(ptr noundef nonnull align 8 dereferenceable(16) %0) #0 align 2 {
  %2 = alloca ptr, align 8
  store ptr %0, ptr %2, align 8
  %3 = load ptr, ptr %2, align 8
  %4 = call noundef nonnull align 8 dereferenceable(8) ptr @_ZNKSt9_Any_data9_M_accessIPZNK12_GLOBAL__N_113StreamChecker20constructLeakNoteTagERN5clang4ento14CheckerContextEPKNS4_7SymExprERKNSt7__cxx1112basic_stringIcSt11char_traitsIcESaIcEEEEUlRNS4_22PathSensitiveBugReportEE_EERKT_v(ptr noundef nonnull align 8 dereferenceable(16) %3) #18
  %5 = load ptr, ptr %4, align 8
  ret ptr %5
}

; Function Attrs: mustprogress nounwind uwtable
define internal void @_ZNSt17_Function_handlerIFNSt7__cxx1112basic_stringIcSt11char_traitsIcESaIcEEERN5clang4ento22PathSensitiveBugReportEEZNK12_GLOBAL__N_113StreamChecker20constructLeakNoteTagERNS7_14CheckerContextEPKNS7_7SymExprERKS5_EUlS9_E_E9_M_invokeERKSt9_Any_dataS9_(ptr dead_on_unwind noalias writable sret(%"class.std::__cxx11::basic_string") align 8 %0, ptr noundef nonnull align 8 dereferenceable(16) %1, ptr noundef nonnull align 8 dereferenceable(1016) %2) #0 align 2 {
  %4 = alloca ptr, align 8
  %5 = alloca ptr, align 8
  %6 = alloca ptr, align 8
  store ptr %0, ptr %4, align 8
  store ptr %1, ptr %5, align 8
  store ptr %2, ptr %6, align 8
  %7 = load ptr, ptr %5, align 8
  %8 = call noundef ptr @_ZNSt14_Function_base13_Base_managerIZNK12_GLOBAL__N_113StreamChecker20constructLeakNoteTagERN5clang4ento14CheckerContextEPKNS4_7SymExprERKNSt7__cxx1112basic_stringIcSt11char_traitsIcESaIcEEEEUlRNS4_22PathSensitiveBugReportEE_E14_M_get_pointerERKSt9_Any_data(ptr noundef nonnull align 8 dereferenceable(16) %7) #18
  %9 = load ptr, ptr %6, align 8
  call void @_ZSt10__invoke_rINSt7__cxx1112basic_stringIcSt11char_traitsIcESaIcEEERZNK12_GLOBAL__N_113StreamChecker20constructLeakNoteTagERN5clang4ento14CheckerContextEPKNS9_7SymExprERKS5_EUlRNS9_22PathSensitiveBugReportEE_JSI_EENSt9enable_ifIX16is_invocable_r_vIT_T0_DpT1_EESM_E4typeEOSN_DpOSO_(ptr dead_on_unwind writable sret(%"class.std::__cxx11::basic_string") align 8 %0, ptr noundef nonnull align 8 dereferenceable(48) %8, ptr noundef nonnull align 8 dereferenceable(1016) %9)
  ret void
}