; Function Attrs: mustprogress nounwind uwtable
define internal void @_ZNSt17_Function_handlerIFNSt7__cxx1112basic_stringIcSt11char_traitsIcESaIcEEERN5clang4ento22PathSensitiveBugReportEEZNK12_GLOBAL__N_113StreamChecker20constructLeakNoteTagERNS7_14CheckerContextEPKNS7_7SymExprERKS5_EUlS9_E_E9_M_invokeERKSt9_Any_dataS9_(ptr dead_on_unwind noalias writable sret(%"class.std::__cxx11::basic_string") align 8 %0, ptr noundef nonnull readonly align 8 captures(none) dereferenceable(16) %1, ptr noundef nonnull align 8 dereferenceable(1016) %2) #2 align 2 {
  %4 = alloca %"class.std::allocator.141", align 1
  %.val = load ptr, ptr %1, align 8
  call void @llvm.lifetime.start.p0(i64 1, ptr nonnull %4), !noalias !248
  %5 = load ptr, ptr %.val, align 8, !noalias !253
  %6 = getelementptr inbounds nuw i8, ptr %.val, i64 8
  %7 = load ptr, ptr %6, align 8, !noalias !253
  %8 = tail call noundef zeroext i1 @_ZNK5clang4ento22PathSensitiveBugReport13isInterestingEPKNS0_7SymExprE(ptr noundef nonnull align 8 dereferenceable(1016) %2, ptr noundef %7) #21, !noalias !253
  %9 = getelementptr inbounds nuw i8, ptr %2, i64 16
  %10 = load ptr, ptr %9, align 8, !noalias !253
  %11 = getelementptr inbounds nuw i8, ptr %5, i64 656
  %12 = icmp eq ptr %10, %11
  %or.cond.i.i.i = select i1 %8, i1 %12, i1 false
  br i1 %or.cond.i.i.i, label %13, label %15

13:                                               ; preds = %3
  %14 = getelementptr inbounds nuw i8, ptr %.val, i64 16
  tail call void @_ZNSt7__cxx1112basic_stringIcSt11char_traitsIcESaIcEEC1ERKS4_(ptr noundef nonnull align 8 dereferenceable(32) %0, ptr noundef nonnull align 8 dereferenceable(32) %14) #21
  br label %_ZSt10__invoke_rINSt7__cxx1112basic_stringIcSt11char_traitsIcESaIcEEERZNK12_GLOBAL__N_113StreamChecker20constructLeakNoteTagERN5clang4ento14CheckerContextEPKNS9_7SymExprERKS5_EUlRNS9_22PathSensitiveBugReportEE_JSI_EENSt9enable_ifIX16is_invocable_r_vIT_T0_DpT1_EESM_E4typeEOSN_DpOSO_.exit

15:                                               ; preds = %3
  call void @_ZNSaIcEC1Ev(ptr noundef nonnull align 1 dereferenceable(1) %4) #21, !noalias !253
  %16 = call noundef ptr @_ZNSt7__cxx1112basic_stringIcSt11char_traitsIcESaIcEE13_M_local_dataEv(ptr noundef nonnull align 8 dereferenceable(32) %0) #21
  call void @_ZNSt7__cxx1112basic_stringIcSt11char_traitsIcESaIcEE12_Alloc_hiderC1EPcRKS3_(ptr noundef nonnull align 8 dereferenceable(32) %0, ptr noundef %16, ptr noundef nonnull align 1 dereferenceable(1) %4) #21
  %17 = call noundef ptr @_ZNSt7__cxx1112basic_stringIcSt11char_traitsIcESaIcEE13_M_local_dataEv(ptr noundef nonnull align 8 dereferenceable(32) %0) #21
  %18 = call noundef ptr @_ZNKSt7__cxx1112basic_stringIcSt11char_traitsIcESaIcEE7_M_dataEv(ptr noundef nonnull align 8 dereferenceable(32) %0) #21
  call void @_ZNSt7__cxx1112basic_stringIcSt11char_traitsIcESaIcEE13_S_copy_charsEPcPKcS7_(ptr noundef %18, ptr noundef nonnull @.str.5, ptr noundef nonnull @.str.5) #21
  call void @_ZNSt7__cxx1112basic_stringIcSt11char_traitsIcESaIcEE13_M_set_lengthEm(ptr noundef nonnull align 8 dereferenceable(32) %0, i64 noundef 0) #21
  call void @_ZNSaIcED1Ev(ptr noundef nonnull align 1 dereferenceable(1) %4) #21
  br label %_ZSt10__invoke_rINSt7__cxx1112basic_stringIcSt11char_traitsIcESaIcEEERZNK12_GLOBAL__N_113StreamChecker20constructLeakNoteTagERN5clang4ento14CheckerContextEPKNS9_7SymExprERKS5_EUlRNS9_22PathSensitiveBugReportEE_JSI_EENSt9enable_ifIX16is_invocable_r_vIT_T0_DpT1_EESM_E4typeEOSN_DpOSO_.exit

_ZSt10__invoke_rINSt7__cxx1112basic_stringIcSt11char_traitsIcESaIcEEERZNK12_GLOBAL__N_113StreamChecker20constructLeakNoteTagERN5clang4ento14CheckerContextEPKNS9_7SymExprERKS5_EUlRNS9_22PathSensitiveBugReportEE_JSI_EENSt9enable_ifIX16is_invocable_r_vIT_T0_DpT1_EESM_E4typeEOSN_DpOSO_.exit: ; preds = %13, %15
  call void @llvm.lifetime.end.p0(i64 1, ptr nonnull %4), !noalias !248
  ret void
}